; Function Attrs: nounwind sspstrong uwtable
define internal i64 @random_raw_seed(i64 %0, i64 noundef %1) #0 {
  %3 = and i64 %1, 1
  %.not.i = icmp eq i64 %3, 0
  br i1 %.not.i, label %6, label %4

4:                                                ; preds = %2
  %5 = ashr i64 %1, 1
  br label %rb_num2ulong_inline.exit

6:                                                ; preds = %2
  %7 = tail call i64 @rb_num2ulong(i64 noundef %1) #23
  br label %rb_num2ulong_inline.exit

rb_num2ulong_inline.exit:                         ; preds = %4, %6
  %.0.i = phi i64 [ %5, %4 ], [ %7, %6 ]
  %8 = tail call i64 @rb_str_new(ptr noundef null, i64 noundef %.0.i) #23, !callees !57
  %9 = icmp eq i64 %.0.i, 0
  br i1 %9, label %ruby_fill_random_bytes.exit.thread, label %10

10:                                               ; preds = %rb_num2ulong_inline.exit
  %11 = inttoptr i64 %8 to ptr
  %12 = load i64, ptr %11, align 8, !tbaa !48, !noalias !85
  %13 = and i64 %12, 8192
  %.not.i.i = icmp eq i64 %13, 0
  %14 = getelementptr inbounds nuw i8, ptr %11, i64 24
  br i1 %.not.i.i, label %RSTRING_PTR.exit, label %15

15:                                               ; preds = %10
  %.sroa.2.0.copyload.i = load ptr, ptr %14, align 8
  br label %RSTRING_PTR.exit

RSTRING_PTR.exit:                                 ; preds = %10, %15
  %.sroa.2.0.i = phi ptr [ %.sroa.2.0.copyload.i, %15 ], [ %14, %10 ]
  %16 = load i32, ptr @fill_random_bytes_syscall.try_syscall, align 4, !tbaa !22
  %.not.i.i9 = icmp eq i32 %16, 0
  br i1 %.not.i.i9, label %.preheader17, label %.preheader

.preheader17:                                     ; preds = %.thread.i.i, %RSTRING_PTR.exit
  br label %24

.preheader:                                       ; preds = %RSTRING_PTR.exit, %21
  %.013.i.i = phi i64 [ %22, %21 ], [ 0, %RSTRING_PTR.exit ]
  %17 = tail call ptr @rb_errno_ptr() #23
  store i32 0, ptr %17, align 4, !tbaa !22
  %18 = getelementptr i8, ptr %.sroa.2.0.i, i64 %.013.i.i
  %19 = sub i64 %.0.i, %.013.i.i
  %20 = tail call i64 @getrandom(ptr noundef %18, i64 noundef %19, i32 noundef 0) #23
  %.not17.i.i = icmp eq i64 %20, -1
  br i1 %.not17.i.i, label %.thread.i.i, label %21

.thread.i.i:                                      ; preds = %.preheader
  store atomic volatile i32 0, ptr @fill_random_bytes_syscall.try_syscall seq_cst, align 4
  br label %.preheader17

21:                                               ; preds = %.preheader
  %22 = add i64 %20, %.013.i.i
  %23 = icmp ult i64 %22, %.0.i
  br i1 %23, label %.preheader, label %ruby_fill_random_bytes.exit.thread, !llvm.loop !27

24:                                               ; preds = %.preheader17, %25
  %.014.i.i = phi i64 [ %29, %25 ], [ %.0.i, %.preheader17 ]
  %.012.i.i = phi ptr [ %28, %25 ], [ %.sroa.2.0.i, %.preheader17 ]
  %.not.i8.i = icmp eq i64 %.014.i.i, 0
  br i1 %.not.i8.i, label %ruby_fill_random_bytes.exit.thread, label %25

25:                                               ; preds = %24
  %26 = tail call i64 @llvm.umin.i64(i64 %.014.i.i, i64 256)
  %27 = tail call i32 @getentropy(ptr noundef %.012.i.i, i64 noundef %26) #23
  %.not16.i9.i = icmp eq i32 %27, 0
  %28 = getelementptr i8, ptr %.012.i.i, i64 %26
  %29 = sub i64 %.014.i.i, %26
  br i1 %.not16.i9.i, label %24, label %ruby_fill_random_bytes.exit, !llvm.loop !28

ruby_fill_random_bytes.exit:                      ; preds = %25
  %30 = load i64, ptr @rb_eRuntimeError, align 8, !tbaa !43
  tail call void (i64, ptr, ...) @rb_raise(i64 noundef %30, ptr noundef nonnull @.str.33) #25
  unreachable

ruby_fill_random_bytes.exit.thread:               ; preds = %21, %24, %rb_num2ulong_inline.exit
  ret i64 %8
}